target datalayout = "e-m:e-p270:32:32-p271:32:32-p272:64:64-i64:64-i128:128-f80:128-n8:16:32:64-S128"
target triple = "x86_64-pc-linux-gnu"

%struct._value_string = type { i32, ptr }
%struct._packet_info = type { ptr, ptr, i32, i32, %struct.nstime_t, %struct.nstime_t, %struct.nstime_t, i8, ptr, ptr, ptr, ptr, %struct._address, %struct._address, %struct._address, %struct._address, %struct._address, %struct._address, i32, ptr, i8, [3 x i8], %struct.anon, i32, i32, i32, i32, ptr, i8, ptr, ptr, i16, i16, i32, i32, i16, i32, i32, ptr, ptr, ptr, i8, i8, i16, i16, i16, i32, i16, i16, ptr, ptr, ptr, ptr, ptr, i32, i32 }
%struct.nstime_t = type { i64, i32 }
%struct._address = type { i32, i32, ptr, ptr }
%struct.anon = type { i8, [3 x i8] }
%struct._proto_node = type { ptr, ptr, ptr, ptr, ptr, ptr, ptr }
%struct.field_info = type { ptr, i32, i32, i32, i32, i32, i32, ptr, ptr, ptr, i32, i32 }

@hf_cba_acco_srt_call = internal global i32 0, align 4
@proto_ICBAAccoMgt = internal global i32 0, align 4
@dcom_hresult_vals = external constant [0 x %struct._value_string], align 8
@.str.259 = private unnamed_addr constant [17 x i8] c"Unknown (0x%08x)\00", align 1
@.str.262 = private unnamed_addr constant [15 x i8] c": Cnt=%u -> %s\00", align 1

; Function Attrs: inlinehint nounwind null_pointer_is_valid sspstrong uwtable
define internal void @proto_item_set_generated(ptr noundef %0) #10 {
  %2 = alloca ptr, align 8
  store ptr %0, ptr %2, align 8
  %3 = load ptr, ptr %2, align 8
  %4 = icmp ne ptr %3, null
  br i1 %4, label %5, label %24

5:                                                ; preds = %1
  br label %6

6:                                                ; preds = %5
  %7 = load ptr, ptr %2, align 8
  %8 = getelementptr inbounds nuw %struct._proto_node, ptr %7, i32 0, i32 5
  %9 = load ptr, ptr %8, align 8
  %10 = icmp ne ptr %9, null
  br i1 %10, label %11, label %22

11:                                               ; preds = %6
  %12 = load ptr, ptr %2, align 8
  %13 = getelementptr inbounds nuw %struct._proto_node, ptr %12, i32 0, i32 5
  %14 = load ptr, ptr %13, align 8
  %15 = getelementptr inbounds nuw %struct.field_info, ptr %14, i32 0, i32 6
  %16 = load i32, ptr %15, align 4
  %17 = or i32 %16, 2
  %18 = load ptr, ptr %2, align 8
  %19 = getelementptr inbounds nuw %struct._proto_node, ptr %18, i32 0, i32 5
  %20 = load ptr, ptr %19, align 8
  %21 = getelementptr inbounds nuw %struct.field_info, ptr %20, i32 0, i32 6
  store i32 %17, ptr %21, align 4
  br label %22

22:                                               ; preds = %11, %6
  br label %23

23:                                               ; preds = %22
  br label %24

24:                                               ; preds = %23, %1
  ret void
}

; Function Attrs: null_pointer_is_valid sspstrong uwtable
define internal i32 @dissect_ICBAAccoServerSRT_SetActivation_resp(ptr noundef %0, i32 noundef %1, ptr noundef %2, ptr noundef %3, ptr noundef %4, ptr noundef %5) #0 {
  %7 = alloca ptr, align 8
  %8 = alloca i32, align 4
  %9 = alloca ptr, align 8
  %10 = alloca ptr, align 8
  %11 = alloca ptr, align 8
  %12 = alloca ptr, align 8
  %13 = alloca i32, align 4
  %14 = alloca i32, align 4
  %15 = alloca i32, align 4
  %16 = alloca i32, align 4
  %17 = alloca i32, align 4
  %18 = alloca ptr, align 8
  store ptr %0, ptr %7, align 8
  store i32 %1, ptr %8, align 4
  store ptr %2, ptr %9, align 8
  store ptr %3, ptr %10, align 8
  store ptr %4, ptr %11, align 8
  store ptr %5, ptr %12, align 8
  call void @llvm.lifetime.start.p0(i64 4, ptr %13) #12
  call void @llvm.lifetime.start.p0(i64 4, ptr %14) #12
  call void @llvm.lifetime.start.p0(i64 4, ptr %15) #12
  store i32 0, ptr %15, align 4
  call void @llvm.lifetime.start.p0(i64 4, ptr %16) #12
  call void @llvm.lifetime.start.p0(i64 4, ptr %17) #12
  call void @llvm.lifetime.start.p0(i64 8, ptr %18) #12
  %19 = load ptr, ptr %7, align 8
  %20 = load i32, ptr %8, align 4
  %21 = load ptr, ptr %9, align 8
  %22 = load ptr, ptr %10, align 8
  %23 = load ptr, ptr %11, align 8
  %24 = load ptr, ptr %12, align 8
  %25 = call i32 @dissect_dcom_that(ptr noundef %19, i32 noundef %20, ptr noundef %21, ptr noundef %22, ptr noundef %23, ptr noundef %24)
  store i32 %25, ptr %8, align 4
  %26 = load ptr, ptr %10, align 8
  %27 = load i32, ptr @hf_cba_acco_srt_call, align 4
  %28 = load ptr, ptr %7, align 8
  %29 = load i32, ptr %8, align 4
  %30 = call ptr @proto_tree_add_boolean(ptr noundef %26, i32 noundef %27, ptr noundef %28, i32 noundef %29, i32 noundef 0, i64 noundef 0)
  store ptr %30, ptr %18, align 8
  %31 = load ptr, ptr %18, align 8
  call void @proto_item_set_generated(ptr noundef %31)
  %32 = load ptr, ptr %9, align 8
  %33 = getelementptr inbounds nuw %struct._packet_info, ptr %32, i32 0, i32 51
  %34 = load ptr, ptr %33, align 8
  %35 = load ptr, ptr %9, align 8
  %36 = load i32, ptr @proto_ICBAAccoMgt, align 4
  call void @p_add_proto_data(ptr noundef %34, ptr noundef %35, i32 noundef %36, i32 noundef 0, ptr noundef inttoptr (i64 3 to ptr))
  %37 = load ptr, ptr %7, align 8
  %38 = load i32, ptr %8, align 4
  %39 = load ptr, ptr %9, align 8
  %40 = load ptr, ptr %10, align 8
  %41 = load ptr, ptr %11, align 8
  %42 = load ptr, ptr %12, align 8
  %43 = call i32 @dissect_dcom_dcerpc_pointer(ptr noundef %37, i32 noundef %38, ptr noundef %39, ptr noundef %40, ptr noundef %41, ptr noundef %42, ptr noundef %14)
  store i32 %43, ptr %8, align 4
  %44 = load i32, ptr %14, align 4
  %45 = icmp ne i32 %44, 0
  br i1 %45, label %46, label %71

46:                                               ; preds = %6
  %47 = load ptr, ptr %7, align 8
  %48 = load i32, ptr %8, align 4
  %49 = load ptr, ptr %9, align 8
  %50 = load ptr, ptr %10, align 8
  %51 = load ptr, ptr %11, align 8
  %52 = load ptr, ptr %12, align 8
  %53 = call i32 @dissect_dcom_dcerpc_array_size(ptr noundef %47, i32 noundef %48, ptr noundef %49, ptr noundef %50, ptr noundef %51, ptr noundef %52, ptr noundef %15)
  store i32 %53, ptr %8, align 4
  store i32 1, ptr %16, align 4
  %54 = load i32, ptr %15, align 4
  store i32 %54, ptr %17, align 4
  br label %55

55:                                               ; preds = %59, %46
  %56 = load i32, ptr %17, align 4
  %57 = add i32 %56, -1
  store i32 %57, ptr %17, align 4
  %58 = icmp ne i32 %56, 0
  br i1 %58, label %59, label %70

59:                                               ; preds = %55
  %60 = load ptr, ptr %7, align 8
  %61 = load i32, ptr %8, align 4
  %62 = load ptr, ptr %9, align 8
  %63 = load ptr, ptr %10, align 8
  %64 = load ptr, ptr %11, align 8
  %65 = load ptr, ptr %12, align 8
  %66 = load i32, ptr %16, align 4
  %67 = call i32 @dissect_dcom_indexed_HRESULT(ptr noundef %60, i32 noundef %61, ptr noundef %62, ptr noundef %63, ptr noundef %64, ptr noundef %65, ptr noundef %13, i32 noundef %66)
  store i32 %67, ptr %8, align 4
  %68 = load i32, ptr %16, align 4
  %69 = add i32 %68, 1
  store i32 %69, ptr %16, align 4
  br label %55, !llvm.loop !54

70:                                               ; preds = %55
  br label %71

71:                                               ; preds = %70, %6
  %72 = load ptr, ptr %7, align 8
  %73 = load i32, ptr %8, align 4
  %74 = load ptr, ptr %9, align 8
  %75 = load ptr, ptr %10, align 8
  %76 = load ptr, ptr %11, align 8
  %77 = load ptr, ptr %12, align 8
  %78 = call i32 @dissect_dcom_HRESULT(ptr noundef %72, i32 noundef %73, ptr noundef %74, ptr noundef %75, ptr noundef %76, ptr noundef %77, ptr noundef %13)
  store i32 %78, ptr %8, align 4
  %79 = load ptr, ptr %9, align 8
  %80 = getelementptr inbounds nuw %struct._packet_info, ptr %79, i32 0, i32 1
  %81 = load ptr, ptr %80, align 8
  %82 = load i32, ptr %15, align 4
  %83 = load i32, ptr %13, align 4
  %84 = call ptr @val_to_str(i32 noundef %83, ptr noundef @dcom_hresult_vals, ptr noundef @.str.259)
  call void (ptr, i32, ptr, ...) @col_append_fstr(ptr noundef %81, i32 noundef 25, ptr noundef @.str.262, i32 noundef %82, ptr noundef %84)
  %85 = load i32, ptr %8, align 4
  call void @llvm.lifetime.end.p0(i64 8, ptr %18) #12
  call void @llvm.lifetime.end.p0(i64 4, ptr %17) #12
  call void @llvm.lifetime.end.p0(i64 4, ptr %16) #12
  call void @llvm.lifetime.end.p0(i64 4, ptr %15) #12
  call void @llvm.lifetime.end.p0(i64 4, ptr %14) #12
  call void @llvm.lifetime.end.p0(i64 4, ptr %13) #12
  ret i32 %85
}