; Function Attrs: null_pointer_is_valid sspstrong uwtable
define internal i32 @dissect_ICBAAccoServerSRT_SetActivation_resp(ptr noundef %0, i32 noundef %1, ptr noundef %2, ptr noundef %3, ptr noundef %4, ptr noundef %5) #0 {
  %7 = alloca i32, align 4
  %8 = alloca i32, align 4
  %9 = alloca i32, align 4
  call void @llvm.lifetime.start.p0(i64 4, ptr nonnull %7) #12
  call void @llvm.lifetime.start.p0(i64 4, ptr nonnull %8) #12
  call void @llvm.lifetime.start.p0(i64 4, ptr nonnull %9) #12
  store i32 0, ptr %9, align 4
  %10 = tail call i32 @dissect_dcom_that(ptr noundef %0, i32 noundef %1, ptr noundef %2, ptr noundef %3, ptr noundef %4, ptr noundef %5)
  %11 = load i32, ptr @hf_cba_acco_srt_call, align 4
  %12 = tail call ptr @proto_tree_add_boolean(ptr noundef %3, i32 noundef %11, ptr noundef %0, i32 noundef %10, i32 noundef 0, i64 noundef 0)
  %.not.i = icmp eq ptr %12, null
  br i1 %.not.i, label %proto_item_set_generated.exit, label %13

13:                                               ; preds = %6
  %14 = getelementptr inbounds nuw i8, ptr %12, i64 40
  %15 = load ptr, ptr %14, align 8
  %.not5.i = icmp eq ptr %15, null
  br i1 %.not5.i, label %proto_item_set_generated.exit, label %16

16:                                               ; preds = %13
  %17 = getelementptr inbounds nuw i8, ptr %15, i64 28
  %18 = load i32, ptr %17, align 4
  %19 = or i32 %18, 2
  store i32 %19, ptr %17, align 4
  br label %proto_item_set_generated.exit

proto_item_set_generated.exit:                    ; preds = %6, %13, %16
  %20 = getelementptr inbounds nuw i8, ptr %2, i64 408
  %21 = load ptr, ptr %20, align 8
  %22 = load i32, ptr @proto_ICBAAccoMgt, align 4
  tail call void @p_add_proto_data(ptr noundef %21, ptr noundef %2, i32 noundef %22, i32 noundef 0, ptr noundef nonnull inttoptr (i64 3 to ptr))
  %23 = call i32 @dissect_dcom_dcerpc_pointer(ptr noundef %0, i32 noundef %10, ptr noundef %2, ptr noundef %3, ptr noundef %4, ptr noundef %5, ptr noundef nonnull %8)
  %24 = load i32, ptr %8, align 4
  %.not = icmp eq i32 %24, 0
  br i1 %.not, label %.loopexit, label %25

25:                                               ; preds = %proto_item_set_generated.exit
  %26 = call i32 @dissect_dcom_dcerpc_array_size(ptr noundef %0, i32 noundef %23, ptr noundef %2, ptr noundef %3, ptr noundef %4, ptr noundef %5, ptr noundef nonnull %9)
  %27 = load i32, ptr %9, align 4
  %.not4243 = icmp eq i32 %27, 0
  br i1 %.not4243, label %.loopexit, label %.lr.ph

.lr.ph:                                           ; preds = %25, %.lr.ph
  %.146 = phi i32 [ %29, %.lr.ph ], [ %26, %25 ]
  %.04045 = phi i32 [ %28, %.lr.ph ], [ %27, %25 ]
  %.04144 = phi i32 [ %30, %.lr.ph ], [ 1, %25 ]
  %28 = add i32 %.04045, -1
  %29 = call i32 @dissect_dcom_indexed_HRESULT(ptr noundef %0, i32 noundef %.146, ptr noundef %2, ptr noundef %3, ptr noundef %4, ptr noundef %5, ptr noundef nonnull %7, i32 noundef %.04144)
  %30 = add i32 %.04144, 1
  %.not42 = icmp eq i32 %28, 0
  br i1 %.not42, label %.loopexit, label %.lr.ph, !llvm.loop !54

.loopexit:                                        ; preds = %.lr.ph, %25, %proto_item_set_generated.exit
  %.0 = phi i32 [ %23, %proto_item_set_generated.exit ], [ %26, %25 ], [ %29, %.lr.ph ]
  %31 = call i32 @dissect_dcom_HRESULT(ptr noundef %0, i32 noundef %.0, ptr noundef %2, ptr noundef %3, ptr noundef %4, ptr noundef %5, ptr noundef nonnull %7)
  %32 = getelementptr inbounds nuw i8, ptr %2, i64 8
  %33 = load ptr, ptr %32, align 8
  %34 = load i32, ptr %9, align 4
  %35 = load i32, ptr %7, align 4
  %36 = call ptr @val_to_str(i32 noundef %35, ptr noundef nonnull @dcom_hresult_vals, ptr noundef nonnull @.str.259)
  call void (ptr, i32, ptr, ...) @col_append_fstr(ptr noundef %33, i32 noundef 25, ptr noundef nonnull @.str.262, i32 noundef %34, ptr noundef %36)
  call void @llvm.lifetime.end.p0(i64 4, ptr nonnull %9) #12
  call void @llvm.lifetime.end.p0(i64 4, ptr nonnull %8) #12
  call void @llvm.lifetime.end.p0(i64 4, ptr nonnull %7) #12
  ret i32 %31
}